; Function Attrs: mustprogress nofree norecurse nosync nounwind willreturn memory(argmem: write) uwtable
define dso_local void @_ZN6mygame6rect32C2EPN6google8protobuf5ArenaE(ptr nocapture noundef nonnull writeonly align 8 dereferenceable(40) %this, ptr noundef %arena) unnamed_addr #5 align 2 personality ptr @__gxx_personality_v0 {
entry:
  %_internal_metadata_.i.i = getelementptr inbounds i8, ptr %this, i64 8
  store ptr %arena, ptr %_internal_metadata_.i.i, align 8
  store ptr getelementptr inbounds ({ [22 x ptr] }, ptr @_ZTVN6mygame6rect32E, i64 0, i32 0, i64 2), ptr %this, align 8
  %x_.i = getelementptr inbounds i8, ptr %this, i64 16
  tail call void @llvm.memset.p0.i64(ptr noundef nonnull align 8 dereferenceable(20) %x_.i, i8 0, i64 20, i1 false)
  ret void
}